; Function Attrs: nounwind uwtable
define noundef ptr @lv_msgbox_add_text(ptr nocapture noundef readonly %0, ptr noundef %1) local_unnamed_addr #0 {
  %3 = getelementptr inbounds nuw i8, ptr %0, i64 72
  %4 = load ptr, ptr %3, align 8, !tbaa !3
  %5 = tail call ptr @lv_label_create(ptr noundef %4) #3
  tail call void @lv_label_set_text(ptr noundef %5, ptr noundef %1) #3
  %6 = tail call i32 @lv_pct(i32 noundef 100) #3
  tail call void @lv_obj_set_width(ptr noundef %5, i32 noundef %6) #3
  ret ptr %5
}